; Function Attrs: nounwind sspstrong uwtable
define internal range(i64 1, 0) i64 @sockopt_int(i64 noundef %0) #0 {
  %2 = alloca i64, align 8
  %3 = alloca i64, align 8
  call void @llvm.lifetime.start.p0(i64 8, ptr nonnull %3) #6
  call void @llvm.lifetime.start.p0(i64 8, ptr nonnull %2) #6
  %.pr.i.i = load i64, ptr @sockopt_data.rbimpl_id, align 8, !tbaa !6
  %.not4.i.i = icmp eq i64 %.pr.i.i, 0
  br i1 %.not4.i.i, label %.lr.ph.i.i, label %sockopt_data.exit

.lr.ph.i.i:                                       ; preds = %1, %.lr.ph.i.i
  %4 = tail call i64 @rb_intern2(ptr noundef nonnull @.str.5, i64 noundef 4) #6
  store i64 %4, ptr @sockopt_data.rbimpl_id, align 8, !tbaa !6
  %.not.i.i = icmp eq i64 %4, 0
  br i1 %.not.i.i, label %.lr.ph.i.i, label %sockopt_data.exit, !llvm.loop !10

sockopt_data.exit:                                ; preds = %.lr.ph.i.i, %1
  %.lcssa.i.i = phi i64 [ %.pr.i.i, %1 ], [ %4, %.lr.ph.i.i ]
  %5 = tail call i64 @rb_attr_get(i64 noundef %0, i64 noundef %.lcssa.i.i) #6
  store i64 %5, ptr %2, align 8, !tbaa !6
  %6 = call i64 @rb_string_value(ptr noundef nonnull %2) #6
  %7 = load i64, ptr %2, align 8, !tbaa !6
  call void @llvm.lifetime.end.p0(i64 8, ptr nonnull %2) #6
  store i64 %7, ptr %3, align 8, !tbaa !6
  %8 = call i64 @rb_string_value(ptr noundef nonnull %3) #6
  %9 = load i64, ptr %3, align 8, !tbaa !6
  %10 = inttoptr i64 %9 to ptr
  %11 = getelementptr inbounds nuw i8, ptr %10, i64 16
  %12 = load i64, ptr %11, align 8, !tbaa !15
  %13 = icmp eq i64 %12, 4
  br i1 %13, label %16, label %14

14:                                               ; preds = %sockopt_data.exit
  %15 = load i64, ptr @rb_eTypeError, align 8, !tbaa !6
  call void (i64, ptr, ...) @rb_raise(i64 noundef %15, ptr noundef nonnull @.str.99, i32 noundef 4, i64 noundef %12) #7
  unreachable

16:                                               ; preds = %sockopt_data.exit
  %17 = load i64, ptr %10, align 8, !tbaa !13, !noalias !79
  %18 = and i64 %17, 8192
  %.not.i.i1 = icmp eq i64 %18, 0
  %19 = getelementptr inbounds nuw i8, ptr %10, i64 24
  br i1 %.not.i.i1, label %RSTRING_PTR.exit, label %20

20:                                               ; preds = %16
  %.sroa.2.0.copyload.i = load ptr, ptr %19, align 8
  br label %RSTRING_PTR.exit

RSTRING_PTR.exit:                                 ; preds = %16, %20
  %.sroa.2.0.i = phi ptr [ %.sroa.2.0.copyload.i, %20 ], [ %19, %16 ]
  %21 = load i32, ptr %.sroa.2.0.i, align 1
  %22 = sext i32 %21 to i64
  %23 = shl nsw i64 %22, 1
  %24 = or disjoint i64 %23, 1
  call void @llvm.lifetime.end.p0(i64 8, ptr nonnull %3) #6
  ret i64 %24
}